target datalayout = "e-m:e-p270:32:32-p271:32:32-p272:64:64-i64:64-i128:128-f80:128-n8:16:32:64-S128"
target triple = "x86_64-pc-linux-gnu"

%struct.tng_trajectory = type { ptr, ptr, i64, ptr, ptr, ptr, ptr, ptr, ptr, i8, i8, ptr, ptr, ptr, ptr, ptr, ptr, ptr, ptr, ptr, i64, i64, i8, i64, i64, i64, double, i64, ptr, ptr, i64, i64, i64, i64, i64, %struct.tng_trajectory_frame_set, i64, i64, i64, i32, ptr, i32, ptr, ptr, ptr, double }
%struct.tng_trajectory_frame_set = type { i64, ptr, i64, i64, i64, i64, ptr, i64, i64, i64, i64, i64, i64, i64, double, i32, ptr, i32, ptr }

@stderr = external global ptr, align 8
@.str.1 = private unnamed_addr constant [130 x i8] c"generated/home/dtcxzyw/WorkSpace/Projects/compilers/llvm-opt-benchmark/bench/gromacs/gromacs/src/external/tng_io/src/lib/tng_io.c\00", align 1
@.str.31 = private unnamed_addr constant [45 x i8] c"TNG library: Cannot swap byte order. %s: %d\0A\00", align 1
@.str.68 = private unnamed_addr constant [43 x i8] c"TNG library: Could not write data. %s: %d\0A\00", align 1

; Function Attrs: inlinehint nounwind uwtable
define internal i32 @tng_file_output_numerical(ptr noundef %0, ptr noundef %1, i64 noundef %2, i8 noundef signext %3, ptr noundef %4, i32 noundef %5) #4 {
  %7 = alloca i32, align 4
  %8 = alloca ptr, align 8
  %9 = alloca ptr, align 8
  %10 = alloca i64, align 8
  %11 = alloca i8, align 1
  %12 = alloca ptr, align 8
  %13 = alloca i32, align 4
  %14 = alloca i32, align 4
  %15 = alloca i64, align 8
  %16 = alloca i32, align 4
  store ptr %0, ptr %8, align 8, !tbaa !3
  store ptr %1, ptr %9, align 8, !tbaa !225
  store i64 %2, ptr %10, align 8, !tbaa !26
  store i8 %3, ptr %11, align 1, !tbaa !23
  store ptr %4, ptr %12, align 8, !tbaa !242
  store i32 %5, ptr %13, align 4, !tbaa !20
  call void @llvm.lifetime.start.p0(i64 4, ptr %14) #11
  call void @llvm.lifetime.start.p0(i64 8, ptr %15) #11
  %17 = load i64, ptr %10, align 8, !tbaa !26
  switch i64 %17, label %94 [
    i64 8, label %18
    i64 4, label %56
  ]

18:                                               ; preds = %6
  %19 = load ptr, ptr %9, align 8, !tbaa !225
  %20 = load i64, ptr %19, align 8, !tbaa !26
  store i64 %20, ptr %15, align 8, !tbaa !26
  %21 = load ptr, ptr %8, align 8, !tbaa !3
  %22 = getelementptr inbounds nuw %struct.tng_trajectory, ptr %21, i32 0, i32 8
  %23 = load ptr, ptr %22, align 8, !tbaa !189
  %24 = icmp ne ptr %23, null
  br i1 %24, label %25, label %36

25:                                               ; preds = %18
  %26 = load ptr, ptr %8, align 8, !tbaa !3
  %27 = getelementptr inbounds nuw %struct.tng_trajectory, ptr %26, i32 0, i32 8
  %28 = load ptr, ptr %27, align 8, !tbaa !189
  %29 = load ptr, ptr %8, align 8, !tbaa !3
  %30 = call i32 %28(ptr noundef %29, ptr noundef %15)
  %31 = icmp ne i32 %30, 0
  br i1 %31, label %32, label %36

32:                                               ; preds = %25
  %33 = load ptr, ptr @stderr, align 8, !tbaa !24
  %34 = load i32, ptr %13, align 4, !tbaa !20
  %35 = call i32 (ptr, ptr, ...) @fprintf(ptr noundef %33, ptr noundef @.str.31, ptr noundef @.str.1, i32 noundef %34) #11
  br label %36

36:                                               ; preds = %32, %25, %18
  %37 = load i64, ptr %10, align 8, !tbaa !26
  %38 = load ptr, ptr %8, align 8, !tbaa !3
  %39 = getelementptr inbounds nuw %struct.tng_trajectory, ptr %38, i32 0, i32 4
  %40 = load ptr, ptr %39, align 8, !tbaa !139
  %41 = call i64 @fwrite(ptr noundef %15, i64 noundef %37, i64 noundef 1, ptr noundef %40)
  %42 = icmp ne i64 %41, 1
  br i1 %42, label %43, label %47

43:                                               ; preds = %36
  %44 = load ptr, ptr @stderr, align 8, !tbaa !24
  %45 = load i32, ptr %13, align 4, !tbaa !20
  %46 = call i32 (ptr, ptr, ...) @fprintf(ptr noundef %44, ptr noundef @.str.68, ptr noundef @.str.1, i32 noundef %45) #11
  store i32 2, ptr %7, align 4
  store i32 1, ptr %16, align 4
  br label %117

47:                                               ; preds = %36
  %48 = load i8, ptr %11, align 1, !tbaa !23
  %49 = sext i8 %48 to i32
  %50 = icmp eq i32 %49, 1
  br i1 %50, label %51, label %55

51:                                               ; preds = %47
  %52 = load ptr, ptr %12, align 8, !tbaa !242
  %53 = load i64, ptr %10, align 8, !tbaa !26
  %54 = trunc i64 %53 to i32
  call void @md5_append(ptr noundef %52, ptr noundef %15, i32 noundef %54)
  br label %55

55:                                               ; preds = %51, %47
  br label %116

56:                                               ; preds = %6
  %57 = load ptr, ptr %9, align 8, !tbaa !225
  %58 = load i32, ptr %57, align 4, !tbaa !20
  store i32 %58, ptr %14, align 4, !tbaa !20
  %59 = load ptr, ptr %8, align 8, !tbaa !3
  %60 = getelementptr inbounds nuw %struct.tng_trajectory, ptr %59, i32 0, i32 7
  %61 = load ptr, ptr %60, align 8, !tbaa !188
  %62 = icmp ne ptr %61, null
  br i1 %62, label %63, label %74

63:                                               ; preds = %56
  %64 = load ptr, ptr %8, align 8, !tbaa !3
  %65 = getelementptr inbounds nuw %struct.tng_trajectory, ptr %64, i32 0, i32 7
  %66 = load ptr, ptr %65, align 8, !tbaa !188
  %67 = load ptr, ptr %8, align 8, !tbaa !3
  %68 = call i32 %66(ptr noundef %67, ptr noundef %14)
  %69 = icmp ne i32 %68, 0
  br i1 %69, label %70, label %74

70:                                               ; preds = %63
  %71 = load ptr, ptr @stderr, align 8, !tbaa !24
  %72 = load i32, ptr %13, align 4, !tbaa !20
  %73 = call i32 (ptr, ptr, ...) @fprintf(ptr noundef %71, ptr noundef @.str.31, ptr noundef @.str.1, i32 noundef %72) #11
  br label %74

74:                                               ; preds = %70, %63, %56
  %75 = load i64, ptr %10, align 8, !tbaa !26
  %76 = load ptr, ptr %8, align 8, !tbaa !3
  %77 = getelementptr inbounds nuw %struct.tng_trajectory, ptr %76, i32 0, i32 4
  %78 = load ptr, ptr %77, align 8, !tbaa !139
  %79 = call i64 @fwrite(ptr noundef %14, i64 noundef %75, i64 noundef 1, ptr noundef %78)
  %80 = icmp ne i64 %79, 1
  br i1 %80, label %81, label %85

81:                                               ; preds = %74
  %82 = load ptr, ptr @stderr, align 8, !tbaa !24
  %83 = load i32, ptr %13, align 4, !tbaa !20
  %84 = call i32 (ptr, ptr, ...) @fprintf(ptr noundef %82, ptr noundef @.str.68, ptr noundef @.str.1, i32 noundef %83) #11
  store i32 2, ptr %7, align 4
  store i32 1, ptr %16, align 4
  br label %117

85:                                               ; preds = %74
  %86 = load i8, ptr %11, align 1, !tbaa !23
  %87 = sext i8 %86 to i32
  %88 = icmp eq i32 %87, 1
  br i1 %88, label %89, label %93

89:                                               ; preds = %85
  %90 = load ptr, ptr %12, align 8, !tbaa !242
  %91 = load i64, ptr %10, align 8, !tbaa !26
  %92 = trunc i64 %91 to i32
  call void @md5_append(ptr noundef %90, ptr noundef %14, i32 noundef %92)
  br label %93

93:                                               ; preds = %89, %85
  br label %116

94:                                               ; preds = %6
  %95 = load ptr, ptr %9, align 8, !tbaa !225
  %96 = load i64, ptr %10, align 8, !tbaa !26
  %97 = load ptr, ptr %8, align 8, !tbaa !3
  %98 = getelementptr inbounds nuw %struct.tng_trajectory, ptr %97, i32 0, i32 4
  %99 = load ptr, ptr %98, align 8, !tbaa !139
  %100 = call i64 @fwrite(ptr noundef %95, i64 noundef %96, i64 noundef 1, ptr noundef %99)
  %101 = icmp ne i64 %100, 1
  br i1 %101, label %102, label %106

102:                                              ; preds = %94
  %103 = load ptr, ptr @stderr, align 8, !tbaa !24
  %104 = load i32, ptr %13, align 4, !tbaa !20
  %105 = call i32 (ptr, ptr, ...) @fprintf(ptr noundef %103, ptr noundef @.str.68, ptr noundef @.str.1, i32 noundef %104) #11
  store i32 2, ptr %7, align 4
  store i32 1, ptr %16, align 4
  br label %117

106:                                              ; preds = %94
  %107 = load i8, ptr %11, align 1, !tbaa !23
  %108 = sext i8 %107 to i32
  %109 = icmp eq i32 %108, 1
  br i1 %109, label %110, label %115

110:                                              ; preds = %106
  %111 = load ptr, ptr %12, align 8, !tbaa !242
  %112 = load ptr, ptr %9, align 8, !tbaa !225
  %113 = load i64, ptr %10, align 8, !tbaa !26
  %114 = trunc i64 %113 to i32
  call void @md5_append(ptr noundef %111, ptr noundef %112, i32 noundef %114)
  br label %115

115:                                              ; preds = %110, %106
  br label %116

116:                                              ; preds = %115, %93, %55
  store i32 0, ptr %7, align 4
  store i32 1, ptr %16, align 4
  br label %117

117:                                              ; preds = %116, %102, %81, %43
  call void @llvm.lifetime.end.p0(i64 8, ptr %15) #11
  call void @llvm.lifetime.end.p0(i64 4, ptr %14) #11
  %118 = load i32, ptr %7, align 4
  ret i32 %118
}