; Function Attrs: inlinehint nounwind uwtable
define internal fastcc range(i32 0, 3) i32 @tng_file_output_numerical(ptr noundef %0, ptr noundef %1, i64 noundef range(i64 1, 9) %2, i8 noundef signext %3, ptr noundef %4, i32 noundef %5) unnamed_addr #20 {
  %7 = alloca i32, align 4
  %8 = alloca i64, align 8
  call void @llvm.lifetime.start.p0(i64 4, ptr nonnull %7) #26
  call void @llvm.lifetime.start.p0(i64 8, ptr nonnull %8) #26
  switch i64 %2, label %47 [
    i64 8, label %9
    i64 4, label %28
  ]

9:                                                ; preds = %6
  %10 = load i64, ptr %1, align 8, !tbaa !38
  store i64 %10, ptr %8, align 8, !tbaa !38
  %11 = getelementptr inbounds nuw i8, ptr %0, i64 64
  %12 = load ptr, ptr %11, align 8, !tbaa !200
  %.not36 = icmp eq ptr %12, null
  br i1 %.not36, label %18, label %13

13:                                               ; preds = %9
  %14 = call i32 %12(ptr noundef nonnull %0, ptr noundef nonnull %8) #26
  %.not37 = icmp eq i32 %14, 0
  br i1 %.not37, label %18, label %15

15:                                               ; preds = %13
  %16 = load ptr, ptr @stderr, align 8, !tbaa !14
  %17 = call i32 (ptr, ptr, ...) @fprintf(ptr noundef %16, ptr noundef nonnull @.str.31, ptr noundef nonnull @.str.1, i32 noundef %5) #29
  br label %18

18:                                               ; preds = %15, %13, %9
  %19 = getelementptr inbounds nuw i8, ptr %0, i64 32
  %20 = load ptr, ptr %19, align 8, !tbaa !138
  %21 = call i64 @fwrite(ptr noundef nonnull %8, i64 noundef 8, i64 noundef 1, ptr noundef %20)
  %.not38 = icmp eq i64 %21, 1
  br i1 %.not38, label %25, label %22

22:                                               ; preds = %18
  %23 = load ptr, ptr @stderr, align 8, !tbaa !14
  %24 = call i32 (ptr, ptr, ...) @fprintf(ptr noundef %23, ptr noundef nonnull @.str.68, ptr noundef nonnull @.str.1, i32 noundef %5) #29
  br label %58

25:                                               ; preds = %18
  %26 = icmp eq i8 %3, 1
  br i1 %26, label %27, label %58

27:                                               ; preds = %25
  call void @md5_append(ptr noundef %4, ptr noundef nonnull %8, i32 noundef 8) #26
  br label %58

28:                                               ; preds = %6
  %29 = load i32, ptr %1, align 4, !tbaa !17
  store i32 %29, ptr %7, align 4, !tbaa !17
  %30 = getelementptr inbounds nuw i8, ptr %0, i64 56
  %31 = load ptr, ptr %30, align 8, !tbaa !199
  %.not = icmp eq ptr %31, null
  br i1 %.not, label %37, label %32

32:                                               ; preds = %28
  %33 = call i32 %31(ptr noundef nonnull %0, ptr noundef nonnull %7) #26
  %.not34 = icmp eq i32 %33, 0
  br i1 %.not34, label %37, label %34

34:                                               ; preds = %32
  %35 = load ptr, ptr @stderr, align 8, !tbaa !14
  %36 = call i32 (ptr, ptr, ...) @fprintf(ptr noundef %35, ptr noundef nonnull @.str.31, ptr noundef nonnull @.str.1, i32 noundef %5) #29
  br label %37

37:                                               ; preds = %34, %32, %28
  %38 = getelementptr inbounds nuw i8, ptr %0, i64 32
  %39 = load ptr, ptr %38, align 8, !tbaa !138
  %40 = call i64 @fwrite(ptr noundef nonnull %7, i64 noundef 4, i64 noundef 1, ptr noundef %39)
  %.not35 = icmp eq i64 %40, 1
  br i1 %.not35, label %44, label %41

41:                                               ; preds = %37
  %42 = load ptr, ptr @stderr, align 8, !tbaa !14
  %43 = call i32 (ptr, ptr, ...) @fprintf(ptr noundef %42, ptr noundef nonnull @.str.68, ptr noundef nonnull @.str.1, i32 noundef %5) #29
  br label %58

44:                                               ; preds = %37
  %45 = icmp eq i8 %3, 1
  br i1 %45, label %46, label %58

46:                                               ; preds = %44
  call void @md5_append(ptr noundef %4, ptr noundef nonnull %7, i32 noundef 4) #26
  br label %58

47:                                               ; preds = %6
  %48 = getelementptr inbounds nuw i8, ptr %0, i64 32
  %49 = load ptr, ptr %48, align 8, !tbaa !138
  %50 = tail call i64 @fwrite(ptr noundef %1, i64 noundef %2, i64 noundef 1, ptr noundef %49)
  %.not39 = icmp eq i64 %50, 1
  br i1 %.not39, label %54, label %51

51:                                               ; preds = %47
  %52 = load ptr, ptr @stderr, align 8, !tbaa !14
  %53 = tail call i32 (ptr, ptr, ...) @fprintf(ptr noundef %52, ptr noundef nonnull @.str.68, ptr noundef nonnull @.str.1, i32 noundef %5) #29
  br label %58

54:                                               ; preds = %47
  %55 = icmp eq i8 %3, 1
  br i1 %55, label %56, label %58

56:                                               ; preds = %54
  %57 = trunc nuw nsw i64 %2 to i32
  tail call void @md5_append(ptr noundef %4, ptr noundef %1, i32 noundef %57) #26
  br label %58

58:                                               ; preds = %27, %25, %46, %44, %56, %54, %51, %41, %22
  %.0 = phi i32 [ 2, %51 ], [ 2, %41 ], [ 2, %22 ], [ 0, %54 ], [ 0, %56 ], [ 0, %44 ], [ 0, %46 ], [ 0, %25 ], [ 0, %27 ]
  call void @llvm.lifetime.end.p0(i64 8, ptr nonnull %8) #26
  call void @llvm.lifetime.end.p0(i64 4, ptr nonnull %7) #26
  ret i32 %.0
}